target datalayout = "e-m:e-p270:32:32-p271:32:32-p272:64:64-i64:64-i128:128-f80:128-n8:16:32:64-S128"
target triple = "x86_64-pc-linux-gnu"

; Function Attrs: nounwind uwtable
define internal i32 @pkcs12_gen_gost_mac_key(ptr noundef %0, i32 noundef %1, ptr noundef %2, i32 noundef %3, i32 noundef %4, i32 noundef %5, ptr noundef %6, ptr noundef %7) #0 {
  %9 = alloca i32, align 4
  %10 = alloca ptr, align 8
  %11 = alloca i32, align 4
  %12 = alloca ptr, align 8
  %13 = alloca i32, align 4
  %14 = alloca i32, align 4
  %15 = alloca i32, align 4
  %16 = alloca ptr, align 8
  %17 = alloca ptr, align 8
  %18 = alloca [96 x i8], align 16
  %19 = alloca i32, align 4
  store ptr %0, ptr %10, align 8, !tbaa !35
  store i32 %1, ptr %11, align 4, !tbaa !37
  store ptr %2, ptr %12, align 8, !tbaa !35
  store i32 %3, ptr %13, align 4, !tbaa !37
  store i32 %4, ptr %14, align 4, !tbaa !37
  store i32 %5, ptr %15, align 4, !tbaa !37
  store ptr %6, ptr %16, align 8, !tbaa !35
  store ptr %7, ptr %17, align 8, !tbaa !55
  call void @llvm.lifetime.start.p0(i64 96, ptr %18) #4
  %20 = load i32, ptr %15, align 4, !tbaa !37
  %21 = icmp ne i32 %20, 32
  br i1 %21, label %22, label %23

22:                                               ; preds = %8
  store i32 0, ptr %9, align 4
  store i32 1, ptr %19, align 4
  br label %40

23:                                               ; preds = %8
  %24 = load ptr, ptr %10, align 8, !tbaa !35
  %25 = load i32, ptr %11, align 4, !tbaa !37
  %26 = load ptr, ptr %12, align 8, !tbaa !35
  %27 = load i32, ptr %13, align 4, !tbaa !37
  %28 = load i32, ptr %14, align 4, !tbaa !37
  %29 = load ptr, ptr %17, align 8, !tbaa !55
  %30 = getelementptr inbounds [96 x i8], ptr %18, i64 0, i64 0
  %31 = call i32 @PKCS5_PBKDF2_HMAC(ptr noundef %24, i32 noundef %25, ptr noundef %26, i32 noundef %27, i32 noundef %28, ptr noundef %29, i32 noundef 96, ptr noundef %30)
  %32 = icmp ne i32 %31, 0
  br i1 %32, label %34, label %33

33:                                               ; preds = %23
  store i32 0, ptr %9, align 4
  store i32 1, ptr %19, align 4
  br label %40

34:                                               ; preds = %23
  %35 = load ptr, ptr %16, align 8, !tbaa !35
  %36 = getelementptr inbounds [96 x i8], ptr %18, i64 0, i64 0
  %37 = getelementptr inbounds nuw i8, ptr %36, i64 96
  %38 = getelementptr inbounds i8, ptr %37, i64 -32
  call void @llvm.memcpy.p0.p0.i64(ptr align 1 %35, ptr align 1 %38, i64 32, i1 false)
  %39 = getelementptr inbounds [96 x i8], ptr %18, i64 0, i64 0
  call void @OPENSSL_cleanse(ptr noundef %39, i64 noundef 96)
  store i32 1, ptr %9, align 4
  store i32 1, ptr %19, align 4
  br label %40

40:                                               ; preds = %34, %33, %22
  call void @llvm.lifetime.end.p0(i64 96, ptr %18) #4
  %41 = load i32, ptr %9, align 4
  ret i32 %41
}