; Function Attrs: nounwind uwtable
define internal fastcc range(i32 0, 2) i32 @pkcs12_gen_gost_mac_key(ptr noundef %0, i32 noundef %1, ptr noundef %2, i32 noundef %3, i32 noundef %4, ptr noundef nonnull writeonly captures(none) %5, ptr noundef nonnull %6) unnamed_addr #1 {
  %8 = alloca [96 x i8], align 16
  call void @llvm.lifetime.start.p0(i64 96, ptr nonnull %8) #5
  %9 = call i32 @PKCS5_PBKDF2_HMAC(ptr noundef %0, i32 noundef %1, ptr noundef %2, i32 noundef %3, i32 noundef %4, ptr noundef nonnull %6, i32 noundef 96, ptr noundef nonnull %8) #5
  %.not = icmp eq i32 %9, 0
  br i1 %.not, label %12, label %10

10:                                               ; preds = %7
  %11 = getelementptr inbounds nuw i8, ptr %8, i64 64
  call void @llvm.memcpy.p0.p0.i64(ptr noundef nonnull align 1 dereferenceable(32) %5, ptr noundef nonnull align 16 dereferenceable(32) %11, i64 32, i1 false)
  call void @OPENSSL_cleanse(ptr noundef nonnull %8, i64 noundef 96) #5
  br label %12

12:                                               ; preds = %7, %10
  %.0 = phi i32 [ 1, %10 ], [ 0, %7 ]
  call void @llvm.lifetime.end.p0(i64 96, ptr nonnull %8) #5
  ret i32 %.0
}